target datalayout = "e-m:e-p270:32:32-p271:32:32-p272:64:64-i64:64-i128:128-f80:128-n8:16:32:64-S128"
target triple = "x86_64-pc-linux-gnu"

%struct.AVFilterContext = type { ptr, ptr, ptr, ptr, ptr, i32, ptr, ptr, i32, ptr, ptr, i32, i32, ptr, ptr, ptr, ptr, i32, ptr, i32, i32 }
%struct.VibratoContext = type { ptr, double, double, i32, ptr, i32, i32, ptr, i32, i32 }
%struct.AVFilterLink = type { ptr, ptr, ptr, ptr, i32, i32, i32, i32, %struct.AVRational, i32, i32, i32, %struct.AVChannelLayout, %struct.AVRational, ptr, i32, %struct.AVFilterFormatsConfig, %struct.AVFilterFormatsConfig }
%struct.AVChannelLayout = type { i32, i32, %union.anon.1, ptr }
%union.anon.1 = type { i64 }
%struct.AVRational = type { i32, i32 }
%struct.AVFilterFormatsConfig = type { ptr, ptr, ptr, ptr, ptr }
%struct.AVFrame = type { [8 x ptr], [8 x i32], ptr, i32, i32, i32, i32, i32, %struct.AVRational, i64, i64, %struct.AVRational, i32, ptr, i32, i32, [8 x ptr], ptr, i32, ptr, i32, i32, i32, i32, i32, i32, i32, i64, ptr, i32, ptr, ptr, i64, i64, i64, i64, ptr, %struct.AVChannelLayout, i64 }

; Function Attrs: nounwind uwtable
define internal i32 @filter_frame(ptr noundef %0, ptr noundef %1) #1 {
  %3 = alloca i32, align 4
  %4 = alloca ptr, align 8
  %5 = alloca ptr, align 8
  %6 = alloca ptr, align 8
  %7 = alloca ptr, align 8
  %8 = alloca i32, align 4
  %9 = alloca ptr, align 8
  %10 = alloca ptr, align 8
  %11 = alloca i32, align 4
  %12 = alloca i32, align 4
  %13 = alloca double, align 8
  %14 = alloca i32, align 4
  %15 = alloca i32, align 4
  %16 = alloca ptr, align 8
  %17 = alloca ptr, align 8
  %18 = alloca ptr, align 8
  %19 = alloca i32, align 4
  %20 = alloca i32, align 4
  %21 = alloca i32, align 4
  %22 = alloca i32, align 4
  %23 = alloca double, align 8
  %24 = alloca double, align 8
  %25 = alloca i32, align 4
  %26 = alloca ptr, align 8
  %27 = alloca double, align 8
  store ptr %0, ptr %4, align 8, !tbaa !32
  store ptr %1, ptr %5, align 8, !tbaa !34
  call void @llvm.lifetime.start.p0(i64 8, ptr %6) #5
  %28 = load ptr, ptr %4, align 8, !tbaa !32
  %29 = getelementptr inbounds nuw %struct.AVFilterLink, ptr %28, i32 0, i32 2
  %30 = load ptr, ptr %29, align 8, !tbaa !36
  store ptr %30, ptr %6, align 8, !tbaa !4
  call void @llvm.lifetime.start.p0(i64 8, ptr %7) #5
  %31 = load ptr, ptr %6, align 8, !tbaa !4
  %32 = getelementptr inbounds nuw %struct.AVFilterContext, ptr %31, i32 0, i32 9
  %33 = load ptr, ptr %32, align 8, !tbaa !9
  store ptr %33, ptr %7, align 8, !tbaa !22
  call void @llvm.lifetime.start.p0(i64 4, ptr %8) #5
  %34 = load ptr, ptr %7, align 8, !tbaa !22
  %35 = getelementptr inbounds nuw %struct.VibratoContext, ptr %34, i32 0, i32 9
  %36 = load i32, ptr %35, align 4, !tbaa !44
  store i32 %36, ptr %8, align 4, !tbaa !24
  call void @llvm.lifetime.start.p0(i64 8, ptr %9) #5
  %37 = load ptr, ptr %7, align 8, !tbaa !22
  %38 = getelementptr inbounds nuw %struct.VibratoContext, ptr %37, i32 0, i32 7
  %39 = load ptr, ptr %38, align 8, !tbaa !45
  store ptr %39, ptr %9, align 8, !tbaa !46
  call void @llvm.lifetime.start.p0(i64 8, ptr %10) #5
  %40 = load ptr, ptr %6, align 8, !tbaa !4
  %41 = getelementptr inbounds nuw %struct.AVFilterContext, ptr %40, i32 0, i32 7
  %42 = load ptr, ptr %41, align 8, !tbaa !47
  %43 = getelementptr inbounds ptr, ptr %42, i64 0
  %44 = load ptr, ptr %43, align 8, !tbaa !32
  store ptr %44, ptr %10, align 8, !tbaa !32
  call void @llvm.lifetime.start.p0(i64 4, ptr %11) #5
  %45 = load ptr, ptr %7, align 8, !tbaa !22
  %46 = getelementptr inbounds nuw %struct.VibratoContext, ptr %45, i32 0, i32 3
  %47 = load i32, ptr %46, align 8, !tbaa !25
  store i32 %47, ptr %11, align 4, !tbaa !24
  call void @llvm.lifetime.start.p0(i64 4, ptr %12) #5
  %48 = load ptr, ptr %7, align 8, !tbaa !22
  %49 = getelementptr inbounds nuw %struct.VibratoContext, ptr %48, i32 0, i32 6
  %50 = load i32, ptr %49, align 4, !tbaa !48
  store i32 %50, ptr %12, align 4, !tbaa !24
  call void @llvm.lifetime.start.p0(i64 8, ptr %13) #5
  %51 = load ptr, ptr %7, align 8, !tbaa !22
  %52 = getelementptr inbounds nuw %struct.VibratoContext, ptr %51, i32 0, i32 2
  %53 = load double, ptr %52, align 8, !tbaa !49
  store double %53, ptr %13, align 8, !tbaa !50
  call void @llvm.lifetime.start.p0(i64 4, ptr %14) #5
  %54 = load ptr, ptr %7, align 8, !tbaa !22
  %55 = getelementptr inbounds nuw %struct.VibratoContext, ptr %54, i32 0, i32 8
  %56 = load i32, ptr %55, align 8, !tbaa !51
  store i32 %56, ptr %14, align 4, !tbaa !24
  call void @llvm.lifetime.start.p0(i64 4, ptr %15) #5
  %57 = load ptr, ptr %7, align 8, !tbaa !22
  %58 = getelementptr inbounds nuw %struct.VibratoContext, ptr %57, i32 0, i32 5
  %59 = load i32, ptr %58, align 8, !tbaa !52
  store i32 %59, ptr %15, align 4, !tbaa !24
  call void @llvm.lifetime.start.p0(i64 8, ptr %16) #5
  call void @llvm.lifetime.start.p0(i64 8, ptr %17) #5
  call void @llvm.lifetime.start.p0(i64 8, ptr %18) #5
  %60 = load ptr, ptr %5, align 8, !tbaa !34
  %61 = call i32 @av_frame_is_writable(ptr noundef %60)
  %62 = icmp ne i32 %61, 0
  br i1 %62, label %63, label %65

63:                                               ; preds = %2
  %64 = load ptr, ptr %5, align 8, !tbaa !34
  store ptr %64, ptr %16, align 8, !tbaa !34
  br label %78

65:                                               ; preds = %2
  %66 = load ptr, ptr %10, align 8, !tbaa !32
  %67 = load ptr, ptr %5, align 8, !tbaa !34
  %68 = getelementptr inbounds nuw %struct.AVFrame, ptr %67, i32 0, i32 5
  %69 = load i32, ptr %68, align 8, !tbaa !53
  %70 = call ptr @ff_get_audio_buffer(ptr noundef %66, i32 noundef %69)
  store ptr %70, ptr %16, align 8, !tbaa !34
  %71 = load ptr, ptr %16, align 8, !tbaa !34
  %72 = icmp ne ptr %71, null
  br i1 %72, label %74, label %73

73:                                               ; preds = %65
  call void @av_frame_free(ptr noundef %5)
  store i32 -12, ptr %3, align 4
  store i32 1, ptr %19, align 4
  br label %221

74:                                               ; preds = %65
  %75 = load ptr, ptr %16, align 8, !tbaa !34
  %76 = load ptr, ptr %5, align 8, !tbaa !34
  %77 = call i32 @av_frame_copy_props(ptr noundef %75, ptr noundef %76)
  br label %78

78:                                               ; preds = %74, %63
  call void @llvm.lifetime.start.p0(i64 4, ptr %20) #5
  store i32 0, ptr %20, align 4, !tbaa !24
  br label %79

79:                                               ; preds = %203, %78
  %80 = load i32, ptr %20, align 4, !tbaa !24
  %81 = load ptr, ptr %5, align 8, !tbaa !34
  %82 = getelementptr inbounds nuw %struct.AVFrame, ptr %81, i32 0, i32 5
  %83 = load i32, ptr %82, align 8, !tbaa !53
  %84 = icmp slt i32 %80, %83
  br i1 %84, label %86, label %85

85:                                               ; preds = %79
  store i32 2, ptr %19, align 4
  call void @llvm.lifetime.end.p0(i64 4, ptr %20) #5
  br label %206

86:                                               ; preds = %79
  call void @llvm.lifetime.start.p0(i64 4, ptr %21) #5
  call void @llvm.lifetime.start.p0(i64 4, ptr %22) #5
  call void @llvm.lifetime.start.p0(i64 8, ptr %23) #5
  call void @llvm.lifetime.start.p0(i64 8, ptr %24) #5
  %87 = load double, ptr %13, align 8, !tbaa !50
  %88 = load ptr, ptr %9, align 8, !tbaa !46
  %89 = load i32, ptr %14, align 4, !tbaa !24
  %90 = sext i32 %89 to i64
  %91 = getelementptr inbounds double, ptr %88, i64 %90
  %92 = load double, ptr %91, align 8, !tbaa !50
  %93 = fmul nsz double %87, %92
  %94 = call nsz { double, double } @llvm.modf.f64(double %93)
  %95 = extractvalue { double, double } %94, 0
  %96 = extractvalue { double, double } %94, 1
  store double %96, ptr %23, align 8, !tbaa !50
  store double %95, ptr %24, align 8, !tbaa !50
  %97 = load i32, ptr %14, align 4, !tbaa !24
  %98 = add nsw i32 %97, 1
  store i32 %98, ptr %14, align 4, !tbaa !24
  %99 = load i32, ptr %14, align 4, !tbaa !24
  %100 = load i32, ptr %8, align 4, !tbaa !24
  %101 = icmp sge i32 %99, %100
  br i1 %101, label %102, label %106

102:                                              ; preds = %86
  %103 = load i32, ptr %8, align 4, !tbaa !24
  %104 = load i32, ptr %14, align 4, !tbaa !24
  %105 = sub nsw i32 %104, %103
  store i32 %105, ptr %14, align 4, !tbaa !24
  br label %106

106:                                              ; preds = %102, %86
  %107 = load i32, ptr %15, align 4, !tbaa !24
  %108 = sitofp i32 %107 to double
  %109 = load double, ptr %23, align 8, !tbaa !50
  %110 = fadd nsz double %108, %109
  %111 = fptosi double %110 to i32
  store i32 %111, ptr %21, align 4, !tbaa !24
  %112 = load i32, ptr %21, align 4, !tbaa !24
  %113 = load i32, ptr %12, align 4, !tbaa !24
  %114 = icmp sge i32 %112, %113
  br i1 %114, label %115, label %119

115:                                              ; preds = %106
  %116 = load i32, ptr %12, align 4, !tbaa !24
  %117 = load i32, ptr %21, align 4, !tbaa !24
  %118 = sub nsw i32 %117, %116
  store i32 %118, ptr %21, align 4, !tbaa !24
  br label %119

119:                                              ; preds = %115, %106
  %120 = load i32, ptr %21, align 4, !tbaa !24
  %121 = add nsw i32 %120, 1
  store i32 %121, ptr %22, align 4, !tbaa !24
  %122 = load i32, ptr %22, align 4, !tbaa !24
  %123 = load i32, ptr %12, align 4, !tbaa !24
  %124 = icmp sge i32 %122, %123
  br i1 %124, label %125, label %129

125:                                              ; preds = %119
  %126 = load i32, ptr %12, align 4, !tbaa !24
  %127 = load i32, ptr %22, align 4, !tbaa !24
  %128 = sub nsw i32 %127, %126
  store i32 %128, ptr %22, align 4, !tbaa !24
  br label %129

129:                                              ; preds = %125, %119
  call void @llvm.lifetime.start.p0(i64 4, ptr %25) #5
  store i32 0, ptr %25, align 4, !tbaa !24
  br label %130

130:                                              ; preds = %189, %129
  %131 = load i32, ptr %25, align 4, !tbaa !24
  %132 = load i32, ptr %11, align 4, !tbaa !24
  %133 = icmp slt i32 %131, %132
  br i1 %133, label %135, label %134

134:                                              ; preds = %130
  store i32 5, ptr %19, align 4
  call void @llvm.lifetime.end.p0(i64 4, ptr %25) #5
  br label %192

135:                                              ; preds = %130
  call void @llvm.lifetime.start.p0(i64 8, ptr %26) #5
  call void @llvm.lifetime.start.p0(i64 8, ptr %27) #5
  %136 = load ptr, ptr %5, align 8, !tbaa !34
  %137 = getelementptr inbounds nuw %struct.AVFrame, ptr %136, i32 0, i32 2
  %138 = load ptr, ptr %137, align 8, !tbaa !59
  %139 = load i32, ptr %25, align 4, !tbaa !24
  %140 = sext i32 %139 to i64
  %141 = getelementptr inbounds ptr, ptr %138, i64 %140
  %142 = load ptr, ptr %141, align 8, !tbaa !60
  store ptr %142, ptr %17, align 8, !tbaa !46
  %143 = load ptr, ptr %16, align 8, !tbaa !34
  %144 = getelementptr inbounds nuw %struct.AVFrame, ptr %143, i32 0, i32 2
  %145 = load ptr, ptr %144, align 8, !tbaa !59
  %146 = load i32, ptr %25, align 4, !tbaa !24
  %147 = sext i32 %146 to i64
  %148 = getelementptr inbounds ptr, ptr %145, i64 %147
  %149 = load ptr, ptr %148, align 8, !tbaa !60
  store ptr %149, ptr %18, align 8, !tbaa !46
  %150 = load ptr, ptr %7, align 8, !tbaa !22
  %151 = getelementptr inbounds nuw %struct.VibratoContext, ptr %150, i32 0, i32 4
  %152 = load ptr, ptr %151, align 8, !tbaa !29
  %153 = load i32, ptr %25, align 4, !tbaa !24
  %154 = sext i32 %153 to i64
  %155 = getelementptr inbounds ptr, ptr %152, i64 %154
  %156 = load ptr, ptr %155, align 8, !tbaa !46
  store ptr %156, ptr %26, align 8, !tbaa !46
  %157 = load ptr, ptr %17, align 8, !tbaa !46
  %158 = load i32, ptr %20, align 4, !tbaa !24
  %159 = sext i32 %158 to i64
  %160 = getelementptr inbounds double, ptr %157, i64 %159
  %161 = load double, ptr %160, align 8, !tbaa !50
  store double %161, ptr %27, align 8, !tbaa !50
  %162 = load ptr, ptr %26, align 8, !tbaa !46
  %163 = load i32, ptr %21, align 4, !tbaa !24
  %164 = sext i32 %163 to i64
  %165 = getelementptr inbounds double, ptr %162, i64 %164
  %166 = load double, ptr %165, align 8, !tbaa !50
  %167 = load double, ptr %24, align 8, !tbaa !50
  %168 = load ptr, ptr %26, align 8, !tbaa !46
  %169 = load i32, ptr %22, align 4, !tbaa !24
  %170 = sext i32 %169 to i64
  %171 = getelementptr inbounds double, ptr %168, i64 %170
  %172 = load double, ptr %171, align 8, !tbaa !50
  %173 = load ptr, ptr %26, align 8, !tbaa !46
  %174 = load i32, ptr %21, align 4, !tbaa !24
  %175 = sext i32 %174 to i64
  %176 = getelementptr inbounds double, ptr %173, i64 %175
  %177 = load double, ptr %176, align 8, !tbaa !50
  %178 = fsub nsz double %172, %177
  %179 = call nsz double @llvm.fmuladd.f64(double %167, double %178, double %166)
  %180 = load ptr, ptr %18, align 8, !tbaa !46
  %181 = load i32, ptr %20, align 4, !tbaa !24
  %182 = sext i32 %181 to i64
  %183 = getelementptr inbounds double, ptr %180, i64 %182
  store double %179, ptr %183, align 8, !tbaa !50
  %184 = load double, ptr %27, align 8, !tbaa !50
  %185 = load ptr, ptr %26, align 8, !tbaa !46
  %186 = load i32, ptr %15, align 4, !tbaa !24
  %187 = sext i32 %186 to i64
  %188 = getelementptr inbounds double, ptr %185, i64 %187
  store double %184, ptr %188, align 8, !tbaa !50
  call void @llvm.lifetime.end.p0(i64 8, ptr %27) #5
  call void @llvm.lifetime.end.p0(i64 8, ptr %26) #5
  br label %189

189:                                              ; preds = %135
  %190 = load i32, ptr %25, align 4, !tbaa !24
  %191 = add nsw i32 %190, 1
  store i32 %191, ptr %25, align 4, !tbaa !24
  br label %130, !llvm.loop !61

192:                                              ; preds = %134
  %193 = load i32, ptr %15, align 4, !tbaa !24
  %194 = add nsw i32 %193, 1
  store i32 %194, ptr %15, align 4, !tbaa !24
  %195 = load i32, ptr %15, align 4, !tbaa !24
  %196 = load i32, ptr %12, align 4, !tbaa !24
  %197 = icmp sge i32 %195, %196
  br i1 %197, label %198, label %202

198:                                              ; preds = %192
  %199 = load i32, ptr %12, align 4, !tbaa !24
  %200 = load i32, ptr %15, align 4, !tbaa !24
  %201 = sub nsw i32 %200, %199
  store i32 %201, ptr %15, align 4, !tbaa !24
  br label %202

202:                                              ; preds = %198, %192
  call void @llvm.lifetime.end.p0(i64 8, ptr %24) #5
  call void @llvm.lifetime.end.p0(i64 8, ptr %23) #5
  call void @llvm.lifetime.end.p0(i64 4, ptr %22) #5
  call void @llvm.lifetime.end.p0(i64 4, ptr %21) #5
  br label %203

203:                                              ; preds = %202
  %204 = load i32, ptr %20, align 4, !tbaa !24
  %205 = add nsw i32 %204, 1
  store i32 %205, ptr %20, align 4, !tbaa !24
  br label %79, !llvm.loop !62

206:                                              ; preds = %85
  %207 = load i32, ptr %14, align 4, !tbaa !24
  %208 = load ptr, ptr %7, align 8, !tbaa !22
  %209 = getelementptr inbounds nuw %struct.VibratoContext, ptr %208, i32 0, i32 8
  store i32 %207, ptr %209, align 8, !tbaa !51
  %210 = load i32, ptr %15, align 4, !tbaa !24
  %211 = load ptr, ptr %7, align 8, !tbaa !22
  %212 = getelementptr inbounds nuw %struct.VibratoContext, ptr %211, i32 0, i32 5
  store i32 %210, ptr %212, align 8, !tbaa !52
  %213 = load ptr, ptr %5, align 8, !tbaa !34
  %214 = load ptr, ptr %16, align 8, !tbaa !34
  %215 = icmp ne ptr %213, %214
  br i1 %215, label %216, label %217

216:                                              ; preds = %206
  call void @av_frame_free(ptr noundef %5)
  br label %217

217:                                              ; preds = %216, %206
  %218 = load ptr, ptr %10, align 8, !tbaa !32
  %219 = load ptr, ptr %16, align 8, !tbaa !34
  %220 = call i32 @ff_filter_frame(ptr noundef %218, ptr noundef %219)
  store i32 %220, ptr %3, align 4
  store i32 1, ptr %19, align 4
  br label %221

221:                                              ; preds = %217, %73
  call void @llvm.lifetime.end.p0(i64 8, ptr %18) #5
  call void @llvm.lifetime.end.p0(i64 8, ptr %17) #5
  call void @llvm.lifetime.end.p0(i64 8, ptr %16) #5
  call void @llvm.lifetime.end.p0(i64 4, ptr %15) #5
  call void @llvm.lifetime.end.p0(i64 4, ptr %14) #5
  call void @llvm.lifetime.end.p0(i64 8, ptr %13) #5
  call void @llvm.lifetime.end.p0(i64 4, ptr %12) #5
  call void @llvm.lifetime.end.p0(i64 4, ptr %11) #5
  call void @llvm.lifetime.end.p0(i64 8, ptr %10) #5
  call void @llvm.lifetime.end.p0(i64 8, ptr %9) #5
  call void @llvm.lifetime.end.p0(i64 4, ptr %8) #5
  call void @llvm.lifetime.end.p0(i64 8, ptr %7) #5
  call void @llvm.lifetime.end.p0(i64 8, ptr %6) #5
  %222 = load i32, ptr %3, align 4
  ret i32 %222
}