; Function Attrs: nounwind uwtable
define internal i32 @filter_frame(ptr noundef readonly captures(none) %0, ptr noundef %1) #1 {
  %3 = alloca ptr, align 8
  store ptr %1, ptr %3, align 8, !tbaa !27
  %4 = getelementptr inbounds nuw i8, ptr %0, i64 16
  %5 = load ptr, ptr %4, align 8, !tbaa !29
  %6 = getelementptr inbounds nuw i8, ptr %5, i64 72
  %7 = load ptr, ptr %6, align 8, !tbaa !4
  %8 = getelementptr inbounds nuw i8, ptr %7, i64 60
  %9 = load i32, ptr %8, align 4, !tbaa !38
  %10 = getelementptr inbounds nuw i8, ptr %7, i64 48
  %11 = load ptr, ptr %10, align 8, !tbaa !39
  %12 = getelementptr inbounds nuw i8, ptr %5, i64 56
  %13 = load ptr, ptr %12, align 8, !tbaa !40
  %14 = load ptr, ptr %13, align 8, !tbaa !41
  %15 = getelementptr inbounds nuw i8, ptr %7, i64 24
  %16 = load i32, ptr %15, align 8, !tbaa !20
  %17 = getelementptr inbounds nuw i8, ptr %7, i64 44
  %18 = load i32, ptr %17, align 4, !tbaa !43
  %19 = getelementptr inbounds nuw i8, ptr %7, i64 16
  %20 = load double, ptr %19, align 8, !tbaa !44
  %21 = getelementptr inbounds nuw i8, ptr %7, i64 56
  %22 = load i32, ptr %21, align 8, !tbaa !45
  %23 = getelementptr inbounds nuw i8, ptr %7, i64 40
  %24 = load i32, ptr %23, align 8, !tbaa !46
  %25 = tail call i32 @av_frame_is_writable(ptr noundef %1) #4
  %.not = icmp eq i32 %25, 0
  br i1 %.not, label %26, label %33

26:                                               ; preds = %2
  %27 = getelementptr inbounds nuw i8, ptr %1, i64 112
  %28 = load i32, ptr %27, align 8, !tbaa !47
  %29 = tail call ptr @ff_get_audio_buffer(ptr noundef %14, i32 noundef %28) #4
  %.not88 = icmp eq ptr %29, null
  br i1 %.not88, label %30, label %31

30:                                               ; preds = %26
  call void @av_frame_free(ptr noundef nonnull %3) #4
  br label %89

31:                                               ; preds = %26
  %32 = tail call i32 @av_frame_copy_props(ptr noundef nonnull %29, ptr noundef nonnull %1) #4
  br label %33

33:                                               ; preds = %2, %31
  %.072 = phi ptr [ %29, %31 ], [ %1, %2 ]
  %34 = getelementptr inbounds nuw i8, ptr %1, i64 112
  %35 = load i32, ptr %34, align 8, !tbaa !47
  %36 = icmp sgt i32 %35, 0
  br i1 %36, label %.lr.ph100, label %._crit_edge101

.lr.ph100:                                        ; preds = %33
  %37 = icmp sgt i32 %16, 0
  br i1 %37, label %.lr.ph100.split.us, label %.lr.ph100.split

.lr.ph100.split.us:                               ; preds = %.lr.ph100
  %38 = getelementptr inbounds nuw i8, ptr %7, i64 32
  %39 = getelementptr inbounds nuw i8, ptr %.072, i64 96
  %40 = getelementptr inbounds nuw i8, ptr %1, i64 96
  %41 = load ptr, ptr %40, align 8, !tbaa !53
  %42 = load ptr, ptr %39, align 8, !tbaa !53
  %43 = load ptr, ptr %38, align 8, !tbaa !24
  %wide.trip.count112 = zext nneg i32 %35 to i64
  %wide.trip.count = zext nneg i32 %16 to i64
  br label %.lr.ph.us

.lr.ph.us:                                        ; preds = %._crit_edge.us, %.lr.ph100.split.us
  %indvars.iv109 = phi i64 [ %indvars.iv.next110, %._crit_edge.us ], [ 0, %.lr.ph100.split.us ]
  %.06898.us = phi i32 [ %spec.select.us, %._crit_edge.us ], [ %22, %.lr.ph100.split.us ]
  %.07097.us = phi i32 [ %spec.select94.us, %._crit_edge.us ], [ %24, %.lr.ph100.split.us ]
  %44 = sext i32 %.06898.us to i64
  %45 = getelementptr inbounds double, ptr %11, i64 %44
  %46 = load double, ptr %45, align 8, !tbaa !54
  %47 = fmul nsz double %20, %46
  %48 = tail call nsz { double, double } @llvm.modf.f64(double %47)
  %49 = extractvalue { double, double } %48, 0
  %50 = extractvalue { double, double } %48, 1
  %51 = sitofp i32 %.07097.us to double
  %52 = fadd nsz double %50, %51
  %53 = fptosi double %52 to i32
  %.not91.us = icmp sgt i32 %18, %53
  %54 = select i1 %.not91.us, i32 0, i32 %18
  %.074.us = sub nsw i32 %53, %54
  %55 = add nsw i32 %.074.us, 1
  %.not92.us = icmp slt i32 %55, %18
  %56 = select i1 %.not92.us, i32 0, i32 %18
  %.073.us = sub nsw i32 %55, %56
  %57 = sext i32 %.074.us to i64
  %58 = sext i32 %.073.us to i64
  %59 = sext i32 %.07097.us to i64
  br label %60

60:                                               ; preds = %.lr.ph.us, %60
  %indvars.iv = phi i64 [ 0, %.lr.ph.us ], [ %indvars.iv.next, %60 ]
  %61 = getelementptr inbounds nuw ptr, ptr %41, i64 %indvars.iv
  %62 = load ptr, ptr %61, align 8, !tbaa !55
  %63 = getelementptr inbounds nuw ptr, ptr %42, i64 %indvars.iv
  %64 = load ptr, ptr %63, align 8, !tbaa !55
  %65 = getelementptr inbounds nuw ptr, ptr %43, i64 %indvars.iv
  %66 = load ptr, ptr %65, align 8, !tbaa !56
  %67 = getelementptr inbounds nuw double, ptr %62, i64 %indvars.iv109
  %68 = load double, ptr %67, align 8, !tbaa !54
  %69 = getelementptr inbounds double, ptr %66, i64 %57
  %70 = load double, ptr %69, align 8, !tbaa !54
  %71 = getelementptr inbounds double, ptr %66, i64 %58
  %72 = load double, ptr %71, align 8, !tbaa !54
  %73 = fsub nsz double %72, %70
  %74 = tail call nsz double @llvm.fmuladd.f64(double %49, double %73, double %70)
  %75 = getelementptr inbounds nuw double, ptr %64, i64 %indvars.iv109
  store double %74, ptr %75, align 8, !tbaa !54
  %76 = getelementptr inbounds double, ptr %66, i64 %59
  store double %68, ptr %76, align 8, !tbaa !54
  %indvars.iv.next = add nuw nsw i64 %indvars.iv, 1
  %exitcond108.not = icmp eq i64 %indvars.iv.next, %wide.trip.count
  br i1 %exitcond108.not, label %._crit_edge.us, label %60, !llvm.loop !57

._crit_edge.us:                                   ; preds = %60
  %77 = add nsw i32 %.06898.us, 1
  %.not90.us = icmp slt i32 %77, %9
  %78 = select i1 %.not90.us, i32 0, i32 %9
  %spec.select.us = sub nsw i32 %77, %78
  %79 = add nsw i32 %.07097.us, 1
  %.not93.us = icmp slt i32 %79, %18
  %80 = select i1 %.not93.us, i32 0, i32 %18
  %spec.select94.us = sub nsw i32 %79, %80
  %indvars.iv.next110 = add nuw nsw i64 %indvars.iv109, 1
  %exitcond113.not = icmp eq i64 %indvars.iv.next110, %wide.trip.count112
  br i1 %exitcond113.not, label %._crit_edge101, label %.lr.ph.us, !llvm.loop !58

._crit_edge101:                                   ; preds = %.lr.ph100.split, %._crit_edge.us, %33
  %.070.lcssa = phi i32 [ %24, %33 ], [ %spec.select94.us, %._crit_edge.us ], [ %spec.select94, %.lr.ph100.split ]
  %.068.lcssa = phi i32 [ %22, %33 ], [ %spec.select.us, %._crit_edge.us ], [ %spec.select, %.lr.ph100.split ]
  store i32 %.068.lcssa, ptr %21, align 8, !tbaa !45
  store i32 %.070.lcssa, ptr %23, align 8, !tbaa !46
  %.not89 = icmp eq ptr %1, %.072
  br i1 %.not89, label %87, label %86

.lr.ph100.split:                                  ; preds = %.lr.ph100, %.lr.ph100.split
  %.06898 = phi i32 [ %spec.select, %.lr.ph100.split ], [ %22, %.lr.ph100 ]
  %.07097 = phi i32 [ %spec.select94, %.lr.ph100.split ], [ %24, %.lr.ph100 ]
  %.07596 = phi i32 [ %85, %.lr.ph100.split ], [ 0, %.lr.ph100 ]
  %81 = add nsw i32 %.06898, 1
  %.not90 = icmp slt i32 %81, %9
  %82 = select i1 %.not90, i32 0, i32 %9
  %spec.select = sub nsw i32 %81, %82
  %83 = add nsw i32 %.07097, 1
  %.not93 = icmp slt i32 %83, %18
  %84 = select i1 %.not93, i32 0, i32 %18
  %spec.select94 = sub nsw i32 %83, %84
  %85 = add nuw nsw i32 %.07596, 1
  %exitcond.not = icmp eq i32 %85, %35
  br i1 %exitcond.not, label %._crit_edge101, label %.lr.ph100.split, !llvm.loop !58

86:                                               ; preds = %._crit_edge101
  call void @av_frame_free(ptr noundef nonnull %3) #4
  br label %87

87:                                               ; preds = %86, %._crit_edge101
  %88 = call i32 @ff_filter_frame(ptr noundef %14, ptr noundef %.072) #4
  br label %89

89:                                               ; preds = %87, %30
  %.0 = phi i32 [ %88, %87 ], [ -12, %30 ]
  ret i32 %.0
}